target datalayout = "e-m:e-p270:32:32-p271:32:32-p272:64:64-i64:64-i128:128-f80:128-n8:16:32:64-S128"
target triple = "x86_64-unknown-linux-gnu"

%"struct.rocksdb::FileMetaData" = type <{ %"struct.rocksdb::FileDescriptor", %"class.rocksdb::InternalKey", %"class.rocksdb::InternalKey", ptr, %"struct.rocksdb::FileSampledStats", i64, i64, i64, i64, i64, i64, i64, i32, i8, i8, i8, i8, i64, i64, i64, i64, %"class.std::__cxx11::basic_string", %"class.std::__cxx11::basic_string", %"struct.std::array", i64, i8, [7 x i8] }>
%"struct.rocksdb::FileDescriptor" = type { ptr, i64, i64, i64, i64 }
%"class.rocksdb::InternalKey" = type { %"class.std::__cxx11::basic_string" }
%"struct.rocksdb::FileSampledStats" = type { %"struct.std::atomic" }
%"struct.std::atomic" = type { %"struct.std::__atomic_base" }
%"struct.std::__atomic_base" = type { i64 }
%"class.std::__cxx11::basic_string" = type { %"struct.std::__cxx11::basic_string<char>::_Alloc_hider", i64, %union.anon }
%"struct.std::__cxx11::basic_string<char>::_Alloc_hider" = type { ptr }
%union.anon = type { i64, [8 x i8] }
%"struct.std::array" = type { [2 x i64] }
%"struct.std::_Vector_base.9" = type { %"struct.std::_Vector_base<rocksdb::FileMetaData *, std::allocator<rocksdb::FileMetaData *>>::_Vector_impl" }
%"struct.std::_Vector_base<rocksdb::FileMetaData *, std::allocator<rocksdb::FileMetaData *>>::_Vector_impl" = type { %"struct.std::_Vector_base<rocksdb::FileMetaData *, std::allocator<rocksdb::FileMetaData *>>::_Vector_impl_data" }
%"struct.std::_Vector_base<rocksdb::FileMetaData *, std::allocator<rocksdb::FileMetaData *>>::_Vector_impl_data" = type { ptr, ptr, ptr }

; Function Attrs: mustprogress nounwind uwtable
define linkonce_odr noundef i64 @_ZNK7rocksdb14FileDescriptor11GetFileSizeEv(ptr noundef nonnull align 8 dereferenceable(40) %this) #1 comdat align 2 {
entry:
  %this.addr = alloca ptr, align 8
  store ptr %this, ptr %this.addr, align 8
  %this1 = load ptr, ptr %this.addr, align 8
  %file_size = getelementptr inbounds %"struct.rocksdb::FileDescriptor", ptr %this1, i32 0, i32 2
  %0 = load i64, ptr %file_size, align 8
  ret i64 %0
}

; Function Attrs: mustprogress nounwind uwtable
define linkonce_odr noundef nonnull align 8 dereferenceable(8) ptr @_ZNKSt6vectorIPN7rocksdb12FileMetaDataESaIS2_EEixEm(ptr noundef nonnull align 8 dereferenceable(24) %this, i64 noundef %__n) #1 comdat align 2 {
entry:
  %this.addr = alloca ptr, align 8
  %__n.addr = alloca i64, align 8
  store ptr %this, ptr %this.addr, align 8
  store i64 %__n, ptr %__n.addr, align 8
  %this1 = load ptr, ptr %this.addr, align 8
  %_M_impl = getelementptr inbounds %"struct.std::_Vector_base.9", ptr %this1, i32 0, i32 0
  %_M_start = getelementptr inbounds %"struct.std::_Vector_base<rocksdb::FileMetaData *, std::allocator<rocksdb::FileMetaData *>>::_Vector_impl_data", ptr %_M_impl, i32 0, i32 0
  %0 = load ptr, ptr %_M_start, align 8
  %1 = load i64, ptr %__n.addr, align 8
  %add.ptr = getelementptr inbounds ptr, ptr %0, i64 %1
  ret ptr %add.ptr
}

; Function Attrs: mustprogress nounwind uwtable
define linkonce_odr noundef i64 @_ZNKSt6vectorIPN7rocksdb12FileMetaDataESaIS2_EE4sizeEv(ptr noundef nonnull align 8 dereferenceable(24) %this) #1 comdat align 2 {
entry:
  %this.addr = alloca ptr, align 8
  store ptr %this, ptr %this.addr, align 8
  %this1 = load ptr, ptr %this.addr, align 8
  %_M_impl = getelementptr inbounds %"struct.std::_Vector_base.9", ptr %this1, i32 0, i32 0
  %_M_finish = getelementptr inbounds %"struct.std::_Vector_base<rocksdb::FileMetaData *, std::allocator<rocksdb::FileMetaData *>>::_Vector_impl_data", ptr %_M_impl, i32 0, i32 1
  %0 = load ptr, ptr %_M_finish, align 8
  %_M_impl2 = getelementptr inbounds %"struct.std::_Vector_base.9", ptr %this1, i32 0, i32 0
  %_M_start = getelementptr inbounds %"struct.std::_Vector_base<rocksdb::FileMetaData *, std::allocator<rocksdb::FileMetaData *>>::_Vector_impl_data", ptr %_M_impl2, i32 0, i32 0
  %1 = load ptr, ptr %_M_start, align 8
  %sub.ptr.lhs.cast = ptrtoint ptr %0 to i64
  %sub.ptr.rhs.cast = ptrtoint ptr %1 to i64
  %sub.ptr.sub = sub i64 %sub.ptr.lhs.cast, %sub.ptr.rhs.cast
  %sub.ptr.div = sdiv exact i64 %sub.ptr.sub, 8
  ret i64 %sub.ptr.div
}

; Function Attrs: mustprogress uwtable
define noundef i64 @_ZN7rocksdb13TotalFileSizeERKSt6vectorIPNS_12FileMetaDataESaIS2_EE(ptr noundef nonnull align 8 dereferenceable(24) %files) #0 {
entry:
  %files.addr = alloca ptr, align 8
  %sum = alloca i64, align 8
  %i = alloca i64, align 8
  store ptr %files, ptr %files.addr, align 8
  store i64 0, ptr %sum, align 8
  store i64 0, ptr %i, align 8
  br label %for.cond

for.cond:                                         ; preds = %for.inc, %entry
  %0 = load i64, ptr %i, align 8
  %1 = load ptr, ptr %files.addr, align 8
  %call = call noundef i64 @_ZNKSt6vectorIPN7rocksdb12FileMetaDataESaIS2_EE4sizeEv(ptr noundef nonnull align 8 dereferenceable(24) %1) #3
  %cmp = icmp ult i64 %0, %call
  br i1 %cmp, label %land.rhs, label %land.end

land.rhs:                                         ; preds = %for.cond
  %2 = load ptr, ptr %files.addr, align 8
  %3 = load i64, ptr %i, align 8
  %call1 = call noundef nonnull align 8 dereferenceable(8) ptr @_ZNKSt6vectorIPN7rocksdb12FileMetaDataESaIS2_EEixEm(ptr noundef nonnull align 8 dereferenceable(24) %2, i64 noundef %3) #3
  %4 = load ptr, ptr %call1, align 8
  %tobool = icmp ne ptr %4, null
  br label %land.end

land.end:                                         ; preds = %land.rhs, %for.cond
  %5 = phi i1 [ false, %for.cond ], [ %tobool, %land.rhs ]
  br i1 %5, label %for.body, label %for.end

for.body:                                         ; preds = %land.end
  %6 = load ptr, ptr %files.addr, align 8
  %7 = load i64, ptr %i, align 8
  %call2 = call noundef nonnull align 8 dereferenceable(8) ptr @_ZNKSt6vectorIPN7rocksdb12FileMetaDataESaIS2_EEixEm(ptr noundef nonnull align 8 dereferenceable(24) %6, i64 noundef %7) #3
  %8 = load ptr, ptr %call2, align 8
  %fd = getelementptr inbounds %"struct.rocksdb::FileMetaData", ptr %8, i32 0, i32 0
  %call3 = call noundef i64 @_ZNK7rocksdb14FileDescriptor11GetFileSizeEv(ptr noundef nonnull align 8 dereferenceable(40) %fd)
  %9 = load i64, ptr %sum, align 8
  %add = add i64 %9, %call3
  store i64 %add, ptr %sum, align 8
  br label %for.inc

for.inc:                                          ; preds = %for.body
  %10 = load i64, ptr %i, align 8
  %inc = add i64 %10, 1
  store i64 %inc, ptr %i, align 8
  br label %for.cond, !llvm.loop !4

for.end:                                          ; preds = %land.end
  %11 = load i64, ptr %sum, align 8
  ret i64 %11
}