; Function Attrs: mustprogress nofree norecurse nosync nounwind willreturn memory(read, inaccessiblemem: none) uwtable
define noundef i64 @_ZN7rocksdb13TotalFileSizeERKSt6vectorIPNS_12FileMetaDataESaIS2_EE(ptr nocapture noundef nonnull readonly align 8 dereferenceable(24) %files) local_unnamed_addr #4 {
entry:
  %_M_finish.i = getelementptr inbounds i8, ptr %files, i64 8
  %0 = load ptr, ptr %_M_finish.i, align 8
  %1 = load ptr, ptr %files, align 8
  %cmp8.not = icmp eq ptr %0, %1
  br i1 %cmp8.not, label %for.end, label %land.rhs.preheader

land.rhs.preheader:                               ; preds = %entry
  %sub.ptr.lhs.cast.i = ptrtoint ptr %0 to i64
  %sub.ptr.rhs.cast.i = ptrtoint ptr %1 to i64
  %sub.ptr.sub.i = sub i64 %sub.ptr.lhs.cast.i, %sub.ptr.rhs.cast.i
  %sub.ptr.div.i = ashr exact i64 %sub.ptr.sub.i, 3
  %umax = tail call i64 @llvm.umax.i64(i64 %sub.ptr.div.i, i64 1)
  br label %land.rhs

land.rhs:                                         ; preds = %land.rhs.preheader, %for.body
  %i.010 = phi i64 [ %inc, %for.body ], [ 0, %land.rhs.preheader ]
  %sum.09 = phi i64 [ %add, %for.body ], [ 0, %land.rhs.preheader ]
  %add.ptr.i = getelementptr inbounds ptr, ptr %1, i64 %i.010
  %2 = load ptr, ptr %add.ptr.i, align 8
  %tobool.not = icmp eq ptr %2, null
  br i1 %tobool.not, label %for.end, label %for.body

for.body:                                         ; preds = %land.rhs
  %file_size.i = getelementptr inbounds i8, ptr %2, i64 16
  %3 = load i64, ptr %file_size.i, align 8
  %add = add i64 %3, %sum.09
  %inc = add nuw i64 %i.010, 1
  %exitcond.not = icmp eq i64 %inc, %umax
  br i1 %exitcond.not, label %for.end, label %land.rhs, !llvm.loop !4

for.end:                                          ; preds = %land.rhs, %for.body, %entry
  %sum.0.lcssa = phi i64 [ 0, %entry ], [ %add, %for.body ], [ %sum.09, %land.rhs ]
  ret i64 %sum.0.lcssa
}